
Messung_Studie.elf:     file format elf32-avr

Sections:
Idx Name          Size      VMA       LMA       File off  Algn
  0 .data         00000000  00804000  00804000  000002b0  2**0
                  CONTENTS, ALLOC, LOAD, DATA
  1 .text         0000023c  00000000  00000000  00000074  2**1
                  CONTENTS, ALLOC, LOAD, READONLY, CODE
  2 .bss          00000004  00804000  00804000  000002b0  2**0
                  ALLOC
  3 .comment      00000030  00000000  00000000  000002b0  2**0
                  CONTENTS, READONLY
  4 .note.gnu.avr.deviceinfo 00000040  00000000  00000000  000002e0  2**2
                  CONTENTS, READONLY
  5 .debug_aranges 00000090  00000000  00000000  00000320  2**3
                  CONTENTS, READONLY, DEBUGGING
  6 .debug_info   000029f3  00000000  00000000  000003b0  2**0
                  CONTENTS, READONLY, DEBUGGING
  7 .debug_abbrev 00002434  00000000  00000000  00002da3  2**0
                  CONTENTS, READONLY, DEBUGGING
  8 .debug_line   0000056f  00000000  00000000  000051d7  2**0
                  CONTENTS, READONLY, DEBUGGING
  9 .debug_frame  0000010c  00000000  00000000  00005748  2**2
                  CONTENTS, READONLY, DEBUGGING
 10 .debug_str    000014d8  00000000  00000000  00005854  2**0
                  CONTENTS, READONLY, DEBUGGING
 11 .debug_loc    00000111  00000000  00000000  00006d2c  2**0
                  CONTENTS, READONLY, DEBUGGING
 12 .debug_ranges 00000060  00000000  00000000  00006e3d  2**0
                  CONTENTS, READONLY, DEBUGGING

Disassembly of section .text:

00000000 <__vectors>:
   0:	0c 94 54 00 	jmp	0xa8	; 0xa8 <__ctors_end>
   4:	0c 94 66 00 	jmp	0xcc	; 0xcc <__bad_interrupt>
   8:	0c 94 66 00 	jmp	0xcc	; 0xcc <__bad_interrupt>
   c:	0c 94 66 00 	jmp	0xcc	; 0xcc <__bad_interrupt>
  10:	0c 94 66 00 	jmp	0xcc	; 0xcc <__bad_interrupt>
  14:	0c 94 66 00 	jmp	0xcc	; 0xcc <__bad_interrupt>
  18:	0c 94 66 00 	jmp	0xcc	; 0xcc <__bad_interrupt>
  1c:	0c 94 66 00 	jmp	0xcc	; 0xcc <__bad_interrupt>
  20:	0c 94 66 00 	jmp	0xcc	; 0xcc <__bad_interrupt>
  24:	0c 94 e5 00 	jmp	0x1ca	; 0x1ca <__vector_9>
  28:	0c 94 66 00 	jmp	0xcc	; 0xcc <__bad_interrupt>
  2c:	0c 94 66 00 	jmp	0xcc	; 0xcc <__bad_interrupt>
  30:	0c 94 66 00 	jmp	0xcc	; 0xcc <__bad_interrupt>
  34:	0c 94 66 00 	jmp	0xcc	; 0xcc <__bad_interrupt>
  38:	0c 94 66 00 	jmp	0xcc	; 0xcc <__bad_interrupt>
  3c:	0c 94 66 00 	jmp	0xcc	; 0xcc <__bad_interrupt>
  40:	0c 94 66 00 	jmp	0xcc	; 0xcc <__bad_interrupt>
  44:	0c 94 66 00 	jmp	0xcc	; 0xcc <__bad_interrupt>
  48:	0c 94 66 00 	jmp	0xcc	; 0xcc <__bad_interrupt>
  4c:	0c 94 66 00 	jmp	0xcc	; 0xcc <__bad_interrupt>
  50:	0c 94 66 00 	jmp	0xcc	; 0xcc <__bad_interrupt>
  54:	0c 94 66 00 	jmp	0xcc	; 0xcc <__bad_interrupt>
  58:	0c 94 66 00 	jmp	0xcc	; 0xcc <__bad_interrupt>
  5c:	0c 94 66 00 	jmp	0xcc	; 0xcc <__bad_interrupt>
  60:	0c 94 66 00 	jmp	0xcc	; 0xcc <__bad_interrupt>
  64:	0c 94 66 00 	jmp	0xcc	; 0xcc <__bad_interrupt>
  68:	0c 94 66 00 	jmp	0xcc	; 0xcc <__bad_interrupt>
  6c:	0c 94 66 00 	jmp	0xcc	; 0xcc <__bad_interrupt>
  70:	0c 94 66 00 	jmp	0xcc	; 0xcc <__bad_interrupt>
  74:	0c 94 66 00 	jmp	0xcc	; 0xcc <__bad_interrupt>
  78:	0c 94 66 00 	jmp	0xcc	; 0xcc <__bad_interrupt>
  7c:	0c 94 66 00 	jmp	0xcc	; 0xcc <__bad_interrupt>
  80:	0c 94 66 00 	jmp	0xcc	; 0xcc <__bad_interrupt>
  84:	0c 94 66 00 	jmp	0xcc	; 0xcc <__bad_interrupt>
  88:	0c 94 66 00 	jmp	0xcc	; 0xcc <__bad_interrupt>
  8c:	0c 94 66 00 	jmp	0xcc	; 0xcc <__bad_interrupt>
  90:	0c 94 66 00 	jmp	0xcc	; 0xcc <__bad_interrupt>
  94:	0c 94 66 00 	jmp	0xcc	; 0xcc <__bad_interrupt>
  98:	0c 94 66 00 	jmp	0xcc	; 0xcc <__bad_interrupt>
  9c:	0c 94 66 00 	jmp	0xcc	; 0xcc <__bad_interrupt>
  a0:	0c 94 66 00 	jmp	0xcc	; 0xcc <__bad_interrupt>
  a4:	0c 94 66 00 	jmp	0xcc	; 0xcc <__bad_interrupt>

000000a8 <__ctors_end>:
  a8:	11 24       	eor	r1, r1
  aa:	1f be       	out	0x3f, r1	; 63
  ac:	cf ef       	ldi	r28, 0xFF	; 255
  ae:	cd bf       	out	0x3d, r28	; 61
  b0:	df e7       	ldi	r29, 0x7F	; 127
  b2:	de bf       	out	0x3e, r29	; 62

000000b4 <__do_clear_bss>:
  b4:	20 e4       	ldi	r18, 0x40	; 64
  b6:	a0 e0       	ldi	r26, 0x00	; 0
  b8:	b0 e4       	ldi	r27, 0x40	; 64
  ba:	01 c0       	rjmp	.+2      	; 0xbe <.do_clear_bss_start>

000000bc <.do_clear_bss_loop>:
  bc:	1d 92       	st	X+, r1

000000be <.do_clear_bss_start>:
  be:	a4 30       	cpi	r26, 0x04	; 4
  c0:	b2 07       	cpc	r27, r18
  c2:	e1 f7       	brne	.-8      	; 0xbc <.do_clear_bss_loop>
  c4:	0e 94 be 00 	call	0x17c	; 0x17c <main>
  c8:	0c 94 1c 01 	jmp	0x238	; 0x238 <_exit>

000000cc <__bad_interrupt>:
  cc:	0c 94 00 00 	jmp	0	; 0x0 <__vectors>

000000d0 <setup_io>:
uint16_t adc_read(void)
{
	return ADC0_RES;
}
void wert_speichern(uint16_t wert)
{
  d0:	89 e5       	ldi	r24, 0x59	; 89
  d2:	80 93 00 04 	sts	0x0400, r24	; 0x800400 <__TEXT_REGION_LENGTH__+0x7e0400>
  d6:	10 92 40 04 	sts	0x0440, r1	; 0x800440 <__TEXT_REGION_LENGTH__+0x7e0440>
  da:	80 e6       	ldi	r24, 0x60	; 96
  dc:	80 93 60 04 	sts	0x0460, r24	; 0x800460 <__TEXT_REGION_LENGTH__+0x7e0460>
  e0:	88 e0       	ldi	r24, 0x08	; 8
  e2:	80 93 50 04 	sts	0x0450, r24	; 0x800450 <__TEXT_REGION_LENGTH__+0x7e0450>
  e6:	08 95       	ret

000000e8 <setup_vref>:
  e8:	86 e8       	ldi	r24, 0x86	; 134
  ea:	80 93 b0 00 	sts	0x00B0, r24	; 0x8000b0 <__TEXT_REGION_LENGTH__+0x7e00b0>
  ee:	08 95       	ret

000000f0 <setup_adc>:
  f0:	e0 e0       	ldi	r30, 0x00	; 0
  f2:	f6 e0       	ldi	r31, 0x06	; 6
  f4:	82 e8       	ldi	r24, 0x82	; 130
  f6:	80 83       	st	Z, r24
  f8:	8d e0       	ldi	r24, 0x0D	; 13
  fa:	80 93 02 06 	sts	0x0602, r24	; 0x800602 <__TEXT_REGION_LENGTH__+0x7e0602>
  fe:	81 e0       	ldi	r24, 0x01	; 1
 100:	80 93 08 06 	sts	0x0608, r24	; 0x800608 <__TEXT_REGION_LENGTH__+0x7e0608>
 104:	90 e4       	ldi	r25, 0x40	; 64
 106:	90 93 09 06 	sts	0x0609, r25	; 0x800609 <__TEXT_REGION_LENGTH__+0x7e0609>
 10a:	80 93 0e 06 	sts	0x060E, r24	; 0x80060e <__TEXT_REGION_LENGTH__+0x7e060e>
 10e:	90 81       	ld	r25, Z
 110:	91 60       	ori	r25, 0x01	; 1
 112:	90 83       	st	Z, r25
 114:	e7 ee       	ldi	r30, 0xE7	; 231
 116:	f3 e0       	ldi	r31, 0x03	; 3
 118:	31 97       	sbiw	r30, 0x01	; 1
 11a:	f1 f7       	brne	.-4      	; 0x118 <setup_adc+0x28>
 11c:	00 c0       	rjmp	.+0      	; 0x11e <setup_adc+0x2e>
 11e:	00 00       	nop
 120:	80 93 0a 06 	sts	0x060A, r24	; 0x80060a <__TEXT_REGION_LENGTH__+0x7e060a>
 124:	08 95       	ret

00000126 <setup_timer>:
 126:	80 e2       	ldi	r24, 0x20	; 32
 128:	9e e4       	ldi	r25, 0x4E	; 78
 12a:	80 93 26 0a 	sts	0x0A26, r24	; 0x800a26 <__TEXT_REGION_LENGTH__+0x7e0a26>
 12e:	90 93 27 0a 	sts	0x0A27, r25	; 0x800a27 <__TEXT_REGION_LENGTH__+0x7e0a27>
 132:	85 e8       	ldi	r24, 0x85	; 133
 134:	80 93 00 0a 	sts	0x0A00, r24	; 0x800a00 <__TEXT_REGION_LENGTH__+0x7e0a00>
 138:	81 e0       	ldi	r24, 0x01	; 1
 13a:	80 93 0e 0a 	sts	0x0A0E, r24	; 0x800a0e <__TEXT_REGION_LENGTH__+0x7e0a0e>
 13e:	80 93 0a 0a 	sts	0x0A0A, r24	; 0x800a0a <__TEXT_REGION_LENGTH__+0x7e0a0a>
 142:	08 95       	ret

00000144 <timer_start>:
 144:	e0 e0       	ldi	r30, 0x00	; 0
 146:	fa e0       	ldi	r31, 0x0A	; 10
 148:	80 81       	ld	r24, Z
 14a:	81 60       	ori	r24, 0x01	; 1
 14c:	80 83       	st	Z, r24
 14e:	08 95       	ret

00000150 <timer_stop>:
 150:	f8 94       	cli
 152:	e0 e0       	ldi	r30, 0x00	; 0
 154:	fa e0       	ldi	r31, 0x0A	; 10
 156:	80 81       	ld	r24, Z
 158:	8e 7f       	andi	r24, 0xFE	; 254
 15a:	80 83       	st	Z, r24
 15c:	10 92 20 0a 	sts	0x0A20, r1	; 0x800a20 <__TEXT_REGION_LENGTH__+0x7e0a20>
 160:	10 92 21 0a 	sts	0x0A21, r1	; 0x800a21 <__TEXT_REGION_LENGTH__+0x7e0a21>
 164:	78 94       	sei
 166:	08 95       	ret

00000168 <timer_reset>:
 168:	10 92 20 0a 	sts	0x0A20, r1	; 0x800a20 <__TEXT_REGION_LENGTH__+0x7e0a20>
 16c:	10 92 21 0a 	sts	0x0A21, r1	; 0x800a21 <__TEXT_REGION_LENGTH__+0x7e0a21>
 170:	08 95       	ret

00000172 <adc_read>:
 172:	80 91 10 06 	lds	r24, 0x0610	; 0x800610 <__TEXT_REGION_LENGTH__+0x7e0610>
 176:	90 91 11 06 	lds	r25, 0x0611	; 0x800611 <__TEXT_REGION_LENGTH__+0x7e0611>
 17a:	08 95       	ret

0000017c <main>:
	//Datei schließen
}

int main(void)
{
	ccp_write_io((void *) & (CLKCTRL.OSCHFCTRLA), (0b10001101)); //HF Clock Runstandby, 4 MHz CLK_Main, Autotune
 17c:	6d e8       	ldi	r22, 0x8D	; 141
 17e:	88 e6       	ldi	r24, 0x68	; 104
 180:	90 e0       	ldi	r25, 0x00	; 0
 182:	0e 94 16 01 	call	0x22c	; 0x22c <ccp_write_io>
	setup_io();
 186:	0e 94 68 00 	call	0xd0	; 0xd0 <setup_io>
	setup_vref();
 18a:	0e 94 74 00 	call	0xe8	; 0xe8 <setup_vref>
	setup_adc();
 18e:	0e 94 78 00 	call	0xf0	; 0xf0 <setup_adc>
	setup_timer();
 192:	0e 94 93 00 	call	0x126	; 0x126 <setup_timer>
	timer_start();
 196:	0e 94 a2 00 	call	0x144	; 0x144 <timer_start>
	sei();
 19a:	78 94       	sei
	
	while(1)
	{
		if(!(PORTC_IN & 0x01))	//Schalter ein
 19c:	80 91 48 04 	lds	r24, 0x0448	; 0x800448 <__TEXT_REGION_LENGTH__+0x7e0448>
 1a0:	80 fd       	sbrc	r24, 0
 1a2:	10 c0       	rjmp	.+32     	; 0x1c4 <main+0x48>
		{
			if (messung_laeuft)	//Messung läuft bereits
 1a4:	80 91 00 40 	lds	r24, 0x4000	; 0x804000 <__DATA_REGION_ORIGIN__>
 1a8:	88 23       	and	r24, r24
 1aa:	49 f0       	breq	.+18     	; 0x1be <main+0x42>
			{
				if (neuer_messwert)	//Neuer Messwert vorhanden
 1ac:	80 91 01 40 	lds	r24, 0x4001	; 0x804001 <neuer_messwert>
 1b0:	88 23       	and	r24, r24
 1b2:	a1 f3       	breq	.-24     	; 0x19c <main+0x20>
				{
					wert_speichern(messwert);
 1b4:	80 91 02 40 	lds	r24, 0x4002	; 0x804002 <messwert>
 1b8:	90 91 03 40 	lds	r25, 0x4003	; 0x804003 <messwert+0x1>
 1bc:	ef cf       	rjmp	.-34     	; 0x19c <main+0x20>
				}
			} 
			else //Messung läuft noch nicht
			{
				timer_start();	//Messung starten
 1be:	0e 94 a2 00 	call	0x144	; 0x144 <timer_start>
 1c2:	ec cf       	rjmp	.-40     	; 0x19c <main+0x20>
			}
		} 
		else//Schalter aus
		{
			timer_stop();	//Messung stoppen
 1c4:	0e 94 a8 00 	call	0x150	; 0x150 <timer_stop>
 1c8:	e9 cf       	rjmp	.-46     	; 0x19c <main+0x20>

000001ca <__vector_9>:
		}
	}
}

ISR(TCA0_OVF_vect)
{
 1ca:	1f 92       	push	r1
 1cc:	0f 92       	push	r0
 1ce:	0f b6       	in	r0, 0x3f	; 63
 1d0:	0f 92       	push	r0
 1d2:	11 24       	eor	r1, r1
 1d4:	0b b6       	in	r0, 0x3b	; 59
 1d6:	0f 92       	push	r0
 1d8:	2f 93       	push	r18
 1da:	3f 93       	push	r19
 1dc:	4f 93       	push	r20
 1de:	5f 93       	push	r21
 1e0:	6f 93       	push	r22
 1e2:	7f 93       	push	r23
 1e4:	8f 93       	push	r24
 1e6:	9f 93       	push	r25
 1e8:	af 93       	push	r26
 1ea:	bf 93       	push	r27
 1ec:	ef 93       	push	r30
 1ee:	ff 93       	push	r31
	TCA0_SINGLE_INTFLAGS = 1; //Löscht das Interrupt-Flag
 1f0:	81 e0       	ldi	r24, 0x01	; 1
 1f2:	80 93 0b 0a 	sts	0x0A0B, r24	; 0x800a0b <__TEXT_REGION_LENGTH__+0x7e0a0b>
	timer_reset();	//Timer wieder auf 0
 1f6:	0e 94 b4 00 	call	0x168	; 0x168 <timer_reset>
	messwert = adc_read();
 1fa:	0e 94 b9 00 	call	0x172	; 0x172 <adc_read>
 1fe:	80 93 02 40 	sts	0x4002, r24	; 0x804002 <messwert>
 202:	90 93 03 40 	sts	0x4003, r25	; 0x804003 <messwert+0x1>
 206:	ff 91       	pop	r31
 208:	ef 91       	pop	r30
 20a:	bf 91       	pop	r27
 20c:	af 91       	pop	r26
 20e:	9f 91       	pop	r25
 210:	8f 91       	pop	r24
 212:	7f 91       	pop	r23
 214:	6f 91       	pop	r22
 216:	5f 91       	pop	r21
 218:	4f 91       	pop	r20
 21a:	3f 91       	pop	r19
 21c:	2f 91       	pop	r18
 21e:	0f 90       	pop	r0
 220:	0b be       	out	0x3b, r0	; 59
 222:	0f 90       	pop	r0
 224:	0f be       	out	0x3f, r0	; 63
 226:	0f 90       	pop	r0
 228:	1f 90       	pop	r1
 22a:	18 95       	reti

0000022c <ccp_write_io>:
 22c:	dc 01       	movw	r26, r24
 22e:	28 ed       	ldi	r18, 0xD8	; 216
 230:	20 93 34 00 	sts	0x0034, r18	; 0x800034 <__TEXT_REGION_LENGTH__+0x7e0034>
 234:	6c 93       	st	X, r22
 236:	08 95       	ret

00000238 <_exit>:
 238:	f8 94       	cli

0000023a <__stop_program>:
 23a:	ff cf       	rjmp	.-2      	; 0x23a <__stop_program>
